target datalayout = "e-m:e-p270:32:32-p271:32:32-p272:64:64-i64:64-i128:128-f80:128-n8:16:32:64-S128"
target triple = "x86_64-pc-linux-gnu"

%struct.PgStat_EntryRef = type { ptr, ptr, i32, ptr, %struct.dlist_node }
%struct.dlist_node = type { ptr, ptr }
%struct.PgStat_TableStatus = type { i32, i8, ptr, %struct.PgStat_TableCounts, ptr }
%struct.PgStat_TableCounts = type { i64, i64, i64, i64, i64, i64, i64, i64, i8, i64, i64, i64, i64, i64 }
%struct.PgStat_TableXactStatus = type { i64, i64, i64, i8, i64, i64, i64, i32, ptr, ptr, ptr }

@MyDatabaseId = external global i32, align 4

; Function Attrs: nounwind uwtable
define dso_local ptr @find_tabstat_entry(i32 noundef %0) #0 {
  %2 = alloca ptr, align 8
  %3 = alloca i32, align 4
  %4 = alloca ptr, align 8
  %5 = alloca ptr, align 8
  %6 = alloca ptr, align 8
  %7 = alloca ptr, align 8
  %8 = alloca i32, align 4
  store i32 %0, ptr %3, align 4
  call void @llvm.lifetime.start.p0(i64 8, ptr %4) #6
  call void @llvm.lifetime.start.p0(i64 8, ptr %5) #6
  call void @llvm.lifetime.start.p0(i64 8, ptr %6) #6
  store ptr null, ptr %6, align 8
  call void @llvm.lifetime.start.p0(i64 8, ptr %7) #6
  store ptr null, ptr %7, align 8
  %9 = load i32, ptr @MyDatabaseId, align 4
  %10 = load i32, ptr %3, align 4
  %11 = zext i32 %10 to i64
  %12 = call ptr @pgstat_fetch_pending_entry(i32 noundef 2, i32 noundef %9, i64 noundef %11)
  store ptr %12, ptr %4, align 8
  %13 = load ptr, ptr %4, align 8
  %14 = icmp ne ptr %13, null
  br i1 %14, label %24, label %15

15:                                               ; preds = %1
  %16 = load i32, ptr %3, align 4
  %17 = zext i32 %16 to i64
  %18 = call ptr @pgstat_fetch_pending_entry(i32 noundef 2, i32 noundef 0, i64 noundef %17)
  store ptr %18, ptr %4, align 8
  %19 = load ptr, ptr %4, align 8
  %20 = icmp ne ptr %19, null
  br i1 %20, label %23, label %21

21:                                               ; preds = %15
  %22 = load ptr, ptr %7, align 8
  store ptr %22, ptr %2, align 8
  store i32 1, ptr %8, align 4
  br label %70

23:                                               ; preds = %15
  br label %24

24:                                               ; preds = %23, %1
  %25 = load ptr, ptr %4, align 8
  %26 = getelementptr inbounds nuw %struct.PgStat_EntryRef, ptr %25, i32 0, i32 3
  %27 = load ptr, ptr %26, align 8
  store ptr %27, ptr %6, align 8
  %28 = call ptr @palloc(i64 noundef 136)
  store ptr %28, ptr %7, align 8
  %29 = load ptr, ptr %7, align 8
  %30 = load ptr, ptr %6, align 8
  call void @llvm.memcpy.p0.p0.i64(ptr align 8 %29, ptr align 8 %30, i64 136, i1 false)
  %31 = load ptr, ptr %7, align 8
  %32 = getelementptr inbounds nuw %struct.PgStat_TableStatus, ptr %31, i32 0, i32 2
  store ptr null, ptr %32, align 8
  %33 = load ptr, ptr %6, align 8
  %34 = getelementptr inbounds nuw %struct.PgStat_TableStatus, ptr %33, i32 0, i32 2
  %35 = load ptr, ptr %34, align 8
  store ptr %35, ptr %5, align 8
  br label %36

36:                                               ; preds = %64, %24
  %37 = load ptr, ptr %5, align 8
  %38 = icmp ne ptr %37, null
  br i1 %38, label %39, label %68

39:                                               ; preds = %36
  %40 = load ptr, ptr %5, align 8
  %41 = getelementptr inbounds nuw %struct.PgStat_TableXactStatus, ptr %40, i32 0, i32 0
  %42 = load i64, ptr %41, align 8
  %43 = load ptr, ptr %7, align 8
  %44 = getelementptr inbounds nuw %struct.PgStat_TableStatus, ptr %43, i32 0, i32 3
  %45 = getelementptr inbounds nuw %struct.PgStat_TableCounts, ptr %44, i32 0, i32 3
  %46 = load i64, ptr %45, align 8
  %47 = add i64 %46, %42
  store i64 %47, ptr %45, align 8
  %48 = load ptr, ptr %5, align 8
  %49 = getelementptr inbounds nuw %struct.PgStat_TableXactStatus, ptr %48, i32 0, i32 1
  %50 = load i64, ptr %49, align 8
  %51 = load ptr, ptr %7, align 8
  %52 = getelementptr inbounds nuw %struct.PgStat_TableStatus, ptr %51, i32 0, i32 3
  %53 = getelementptr inbounds nuw %struct.PgStat_TableCounts, ptr %52, i32 0, i32 4
  %54 = load i64, ptr %53, align 8
  %55 = add i64 %54, %50
  store i64 %55, ptr %53, align 8
  %56 = load ptr, ptr %5, align 8
  %57 = getelementptr inbounds nuw %struct.PgStat_TableXactStatus, ptr %56, i32 0, i32 2
  %58 = load i64, ptr %57, align 8
  %59 = load ptr, ptr %7, align 8
  %60 = getelementptr inbounds nuw %struct.PgStat_TableStatus, ptr %59, i32 0, i32 3
  %61 = getelementptr inbounds nuw %struct.PgStat_TableCounts, ptr %60, i32 0, i32 5
  %62 = load i64, ptr %61, align 8
  %63 = add i64 %62, %58
  store i64 %63, ptr %61, align 8
  br label %64

64:                                               ; preds = %39
  %65 = load ptr, ptr %5, align 8
  %66 = getelementptr inbounds nuw %struct.PgStat_TableXactStatus, ptr %65, i32 0, i32 8
  %67 = load ptr, ptr %66, align 8
  store ptr %67, ptr %5, align 8
  br label %36, !llvm.loop !8

68:                                               ; preds = %36
  %69 = load ptr, ptr %7, align 8
  store ptr %69, ptr %2, align 8
  store i32 1, ptr %8, align 4
  br label %70

70:                                               ; preds = %68, %21
  call void @llvm.lifetime.end.p0(i64 8, ptr %7) #6
  call void @llvm.lifetime.end.p0(i64 8, ptr %6) #6
  call void @llvm.lifetime.end.p0(i64 8, ptr %5) #6
  call void @llvm.lifetime.end.p0(i64 8, ptr %4) #6
  %71 = load ptr, ptr %2, align 8
  ret ptr %71
}