; Function Attrs: nounwind uwtable
define dso_local noundef ptr @find_tabstat_entry(i32 noundef %0) local_unnamed_addr #0 {
  %2 = load i32, ptr @MyDatabaseId, align 4
  %3 = zext i32 %0 to i64
  %4 = tail call ptr @pgstat_fetch_pending_entry(i32 noundef 2, i32 noundef %2, i64 noundef %3) #9
  %.not = icmp eq ptr %4, null
  br i1 %.not, label %5, label %7

5:                                                ; preds = %1
  %6 = tail call ptr @pgstat_fetch_pending_entry(i32 noundef 2, i32 noundef 0, i64 noundef %3) #9
  %.not23 = icmp eq ptr %6, null
  br i1 %.not23, label %.loopexit, label %7

7:                                                ; preds = %5, %1
  %.019 = phi ptr [ %4, %1 ], [ %6, %5 ]
  %8 = getelementptr inbounds nuw i8, ptr %.019, i64 24
  %9 = load ptr, ptr %8, align 8
  %10 = tail call ptr @palloc(i64 noundef 136) #9
  tail call void @llvm.memcpy.p0.p0.i64(ptr noundef nonnull align 8 dereferenceable(136) %10, ptr noundef nonnull align 8 dereferenceable(136) %9, i64 136, i1 false)
  %11 = getelementptr inbounds nuw i8, ptr %10, i64 8
  store ptr null, ptr %11, align 8
  %12 = getelementptr inbounds nuw i8, ptr %9, i64 8
  %.025 = load ptr, ptr %12, align 8
  %.not2426 = icmp eq ptr %.025, null
  br i1 %.not2426, label %.loopexit, label %.lr.ph

.lr.ph:                                           ; preds = %7
  %13 = getelementptr inbounds nuw i8, ptr %10, i64 40
  %14 = getelementptr inbounds nuw i8, ptr %10, i64 48
  %15 = getelementptr inbounds nuw i8, ptr %10, i64 56
  %.promoted = load i64, ptr %13, align 8
  %.promoted28 = load i64, ptr %14, align 8
  %.promoted29 = load i64, ptr %15, align 8
  br label %16

16:                                               ; preds = %.lr.ph, %16
  %17 = phi i64 [ %.promoted29, %.lr.ph ], [ %27, %16 ]
  %18 = phi i64 [ %.promoted28, %.lr.ph ], [ %24, %16 ]
  %19 = phi i64 [ %.promoted, %.lr.ph ], [ %21, %16 ]
  %.027 = phi ptr [ %.025, %.lr.ph ], [ %.0, %16 ]
  %20 = load i64, ptr %.027, align 8
  %21 = add i64 %19, %20
  store i64 %21, ptr %13, align 8
  %22 = getelementptr inbounds nuw i8, ptr %.027, i64 8
  %23 = load i64, ptr %22, align 8
  %24 = add i64 %18, %23
  store i64 %24, ptr %14, align 8
  %25 = getelementptr inbounds nuw i8, ptr %.027, i64 16
  %26 = load i64, ptr %25, align 8
  %27 = add i64 %17, %26
  store i64 %27, ptr %15, align 8
  %28 = getelementptr inbounds nuw i8, ptr %.027, i64 64
  %.0 = load ptr, ptr %28, align 8
  %.not24 = icmp eq ptr %.0, null
  br i1 %.not24, label %.loopexit, label %16, !llvm.loop !9

.loopexit:                                        ; preds = %16, %7, %5
  %.020 = phi ptr [ null, %5 ], [ %10, %7 ], [ %10, %16 ]
  ret ptr %.020
}